; ModuleID = '58/82.c'
source_filename = "58/82.c"
target datalayout = "e-m:e-p270:32:32-p271:32:32-p272:64:64-i64:64-f80:128-n8:16:32:64-S128"
target triple = "x86_64-pc-linux-gnu"

@.str = private unnamed_addr constant [3 x i8] c"%d\00", align 1
@.str.1 = private unnamed_addr constant [3 x i8] c"0\0A\00", align 1
@.str.2 = private unnamed_addr constant [3 x i8] c"1\0A\00", align 1

; Function Attrs: noinline nounwind uwtable
define dso_local void @main() #0 {
  %1 = alloca i32, align 4
  %2 = alloca i32, align 4
  %3 = alloca i32, align 4
  %4 = alloca i32, align 4
  %5 = alloca i32, align 4
  %6 = alloca [100 x i8], align 16
  %7 = call i32 (i8*, ...) @__isoc99_scanf(i8* getelementptr inbounds ([3 x i8], [3 x i8]* @.str, i64 0, i64 0), i32* %1)
  %8 = call i32 @getchar()
  store i32 0, i32* %2, align 4
  br label %9

9:                                                ; preds = %113, %0
  %10 = load i32, i32* %2, align 4
  %11 = load i32, i32* %1, align 4
  %12 = icmp slt i32 %10, %11
  br i1 %12, label %13, label %116

13:                                               ; preds = %9
  store i32 1, i32* %5, align 4
  %14 = getelementptr inbounds [100 x i8], [100 x i8]* %6, i64 0, i64 0
  %15 = call i32 (i8*, ...) bitcast (i32 (...)* @gets to i32 (i8*, ...)*)(i8* %14)
  %16 = getelementptr inbounds [100 x i8], [100 x i8]* %6, i64 0, i64 0
  %17 = call i64 @strlen(i8* %16) #3
  %18 = trunc i64 %17 to i32
  store i32 %18, i32* %4, align 4
  %19 = getelementptr inbounds [100 x i8], [100 x i8]* %6, i64 0, i64 0
  %20 = load i8, i8* %19, align 16
  %21 = sext i8 %20 to i32
  %22 = icmp eq i32 %21, 95
  br i1 %22, label %44, label %23

23:                                               ; preds = %13
  %24 = getelementptr inbounds [100 x i8], [100 x i8]* %6, i64 0, i64 0
  %25 = load i8, i8* %24, align 16
  %26 = sext i8 %25 to i32
  %27 = icmp sge i32 %26, 97
  br i1 %27, label %28, label %33

28:                                               ; preds = %23
  %29 = getelementptr inbounds [100 x i8], [100 x i8]* %6, i64 0, i64 0
  %30 = load i8, i8* %29, align 16
  %31 = sext i8 %30 to i32
  %32 = icmp sle i32 %31, 122
  br i1 %32, label %44, label %33

33:                                               ; preds = %28, %23
  %34 = getelementptr inbounds [100 x i8], [100 x i8]* %6, i64 0, i64 0
  %35 = load i8, i8* %34, align 16
  %36 = sext i8 %35 to i32
  %37 = icmp sge i32 %36, 65
  br i1 %37, label %38, label %43

38:                                               ; preds = %33
  %39 = getelementptr inbounds [100 x i8], [100 x i8]* %6, i64 0, i64 0
  %40 = load i8, i8* %39, align 16
  %41 = sext i8 %40 to i32
  %42 = icmp sle i32 %41, 90
  br i1 %42, label %44, label %43

43:                                               ; preds = %38, %33
  store i32 0, i32* %5, align 4
  br label %105

44:                                               ; preds = %38, %28, %13
  store i32 1, i32* %3, align 4
  br label %45

45:                                               ; preds = %101, %44
  %46 = load i32, i32* %3, align 4
  %47 = load i32, i32* %4, align 4
  %48 = icmp slt i32 %46, %47
  br i1 %48, label %49, label %104

49:                                               ; preds = %45
  %50 = load i32, i32* %3, align 4
  %51 = sext i32 %50 to i64
  %52 = getelementptr inbounds [100 x i8], [100 x i8]* %6, i64 0, i64 %51
  %53 = load i8, i8* %52, align 1
  %54 = sext i8 %53 to i32
  %55 = icmp eq i32 %54, 95
  br i1 %55, label %99, label %56

56:                                               ; preds = %49
  %57 = load i32, i32* %3, align 4
  %58 = sext i32 %57 to i64
  %59 = getelementptr inbounds [100 x i8], [100 x i8]* %6, i64 0, i64 %58
  %60 = load i8, i8* %59, align 1
  %61 = sext i8 %60 to i32
  %62 = icmp sge i32 %61, 97
  br i1 %62, label %63, label %70

63:                                               ; preds = %56
  %64 = load i32, i32* %3, align 4
  %65 = sext i32 %64 to i64
  %66 = getelementptr inbounds [100 x i8], [100 x i8]* %6, i64 0, i64 %65
  %67 = load i8, i8* %66, align 1
  %68 = sext i8 %67 to i32
  %69 = icmp sle i32 %68, 122
  br i1 %69, label %99, label %70

70:                                               ; preds = %63, %56
  %71 = load i32, i32* %3, align 4
  %72 = sext i32 %71 to i64
  %73 = getelementptr inbounds [100 x i8], [100 x i8]* %6, i64 0, i64 %72
  %74 = load i8, i8* %73, align 1
  %75 = sext i8 %74 to i32
  %76 = icmp sge i32 %75, 65
  br i1 %76, label %77, label %84

77:                                               ; preds = %70
  %78 = load i32, i32* %3, align 4
  %79 = sext i32 %78 to i64
  %80 = getelementptr inbounds [100 x i8], [100 x i8]* %6, i64 0, i64 %79
  %81 = load i8, i8* %80, align 1
  %82 = sext i8 %81 to i32
  %83 = icmp sle i32 %82, 90
  br i1 %83, label %99, label %84

84:                                               ; preds = %77, %70
  %85 = load i32, i32* %3, align 4
  %86 = sext i32 %85 to i64
  %87 = getelementptr inbounds [100 x i8], [100 x i8]* %6, i64 0, i64 %86
  %88 = load i8, i8* %87, align 1
  %89 = sext i8 %88 to i32
  %90 = icmp sge i32 %89, 48
  br i1 %90, label %91, label %98

91:                                               ; preds = %84
  %92 = load i32, i32* %3, align 4
  %93 = sext i32 %92 to i64
  %94 = getelementptr inbounds [100 x i8], [100 x i8]* %6, i64 0, i64 %93
  %95 = load i8, i8* %94, align 1
  %96 = sext i8 %95 to i32
  %97 = icmp sle i32 %96, 57
  br i1 %97, label %99, label %98

98:                                               ; preds = %91, %84
  store i32 0, i32* %5, align 4
  br label %104

99:                                               ; preds = %91, %77, %63, %49
  store i32 1, i32* %5, align 4
  br label %100

100:                                              ; preds = %99
  br label %101

101:                                              ; preds = %100
  %102 = load i32, i32* %3, align 4
  %103 = add nsw i32 %102, 1
  store i32 %103, i32* %3, align 4
  br label %45

104:                                              ; preds = %98, %45
  br label %105

105:                                              ; preds = %104, %43
  %106 = load i32, i32* %5, align 4
  %107 = icmp eq i32 %106, 0
  br i1 %107, label %108, label %110

108:                                              ; preds = %105
  %109 = call i32 (i8*, ...) @printf(i8* getelementptr inbounds ([3 x i8], [3 x i8]* @.str.1, i64 0, i64 0))
  br label %112

110:                                              ; preds = %105
  %111 = call i32 (i8*, ...) @printf(i8* getelementptr inbounds ([3 x i8], [3 x i8]* @.str.2, i64 0, i64 0))
  br label %112

112:                                              ; preds = %110, %108
  br label %113

113:                                              ; preds = %112
  %114 = load i32, i32* %2, align 4
  %115 = add nsw i32 %114, 1
  store i32 %115, i32* %2, align 4
  br label %9

116:                                              ; preds = %9
  ret void
}

declare dso_local i32 @__isoc99_scanf(i8*, ...) #1

declare dso_local i32 @getchar() #1

declare dso_local i32 @gets(...) #1

; Function Attrs: nounwind readonly
declare dso_local i64 @strlen(i8*) #2

declare dso_local i32 @printf(i8*, ...) #1


!llvm.module.flags = !{!0}
!llvm.ident = !{!1}

!0 = !{i32 1, !"wchar_size", i32 4}
!1 = !{!"clang version 10.0.0-4ubuntu1 "}
